; Function Attrs: inlinehint nounwind uwtable
define internal fastcc range(i32 0, 2) i32 @uriOnExitSegmentNzNcOrScheme2W(ptr noundef nonnull readonly captures(none) %0, ptr noundef nonnull %1, ptr noundef %2) unnamed_addr #4 {
  %4 = load ptr, ptr %0, align 8, !tbaa !51
  %5 = load ptr, ptr %4, align 8, !tbaa !56
  %6 = getelementptr inbounds nuw i8, ptr %2, i64 8
  %7 = load ptr, ptr %6, align 8, !tbaa !19
  %8 = tail call ptr %7(ptr noundef %2, i64 noundef 1, i64 noundef 32) #7
  %9 = icmp eq ptr %8, null
  br i1 %9, label %uriPushPathSegmentW.exit, label %10

10:                                               ; preds = %3
  %11 = icmp eq ptr %5, %1
  %12 = load ptr, ptr @uriSafeToPointToW, align 8
  %spec.select.i = select i1 %11, ptr %12, ptr %5
  %spec.select24.i = select i1 %11, ptr %12, ptr %1
  store ptr %spec.select.i, ptr %8, align 8, !tbaa !61
  %13 = getelementptr inbounds nuw i8, ptr %8, i64 8
  store ptr %spec.select24.i, ptr %13, align 8, !tbaa !63
  %14 = load ptr, ptr %0, align 8, !tbaa !51
  %15 = getelementptr inbounds nuw i8, ptr %14, i64 96
  %16 = load ptr, ptr %15, align 8, !tbaa !64
  %17 = icmp eq ptr %16, null
  br i1 %17, label %18, label %20

18:                                               ; preds = %10
  store ptr %8, ptr %15, align 8, !tbaa !64
  %19 = getelementptr inbounds nuw i8, ptr %14, i64 104
  store ptr %8, ptr %19, align 8, !tbaa !65
  br label %24

20:                                               ; preds = %10
  %21 = getelementptr inbounds nuw i8, ptr %14, i64 104
  %22 = load ptr, ptr %21, align 8, !tbaa !65
  %23 = getelementptr inbounds nuw i8, ptr %22, i64 16
  store ptr %8, ptr %23, align 8, !tbaa !66
  store ptr %8, ptr %21, align 8, !tbaa !65
  br label %24

24:                                               ; preds = %20, %18
  store ptr null, ptr %14, align 8, !tbaa !56
  br label %uriPushPathSegmentW.exit

uriPushPathSegmentW.exit:                         ; preds = %3, %24
  %.0 = phi i32 [ 1, %24 ], [ 0, %3 ]
  ret i32 %.0
}